; Function Attrs: nounwind uwtable
define i32 @EVP_PKEY_CTX_is_a(ptr noundef readonly captures(none) %0, ptr noundef %1) local_unnamed_addr #0 {
  %3 = getelementptr inbounds nuw i8, ptr %0, i64 32
  %4 = load ptr, ptr %3, align 8, !tbaa !43
  %5 = icmp eq ptr %4, null
  br i1 %5, label %6, label %13

6:                                                ; preds = %2
  %7 = getelementptr inbounds nuw i8, ptr %0, i64 120
  %8 = load ptr, ptr %7, align 8, !tbaa !46
  %9 = load i32, ptr %8, align 8, !tbaa !8
  %10 = tail call i32 @evp_pkey_name2type(ptr noundef %1) #10
  %11 = icmp eq i32 %9, %10
  %12 = zext i1 %11 to i32
  br label %15

13:                                               ; preds = %2
  %14 = tail call i32 @EVP_KEYMGMT_is_a(ptr noundef nonnull %4, ptr noundef %1) #10
  br label %15

15:                                               ; preds = %13, %6
  %.0 = phi i32 [ %12, %6 ], [ %14, %13 ]
  ret i32 %.0
}